; Function Attrs: nounwind uwtable
define i32 @ff_v4l2_context_dequeue_frame(ptr noundef %0, ptr noundef %1, i32 noundef %2) local_unnamed_addr #0 {
  %4 = tail call fastcc ptr @v4l2_dequeue_v4l2buf(ptr noundef %0, i32 noundef %2)
  %.not = icmp eq ptr %4, null
  br i1 %.not, label %5, label %8

5:                                                ; preds = %3
  %6 = getelementptr inbounds nuw i8, ptr %0, i64 264
  %7 = load i32, ptr %6, align 8, !tbaa !40
  %.not7 = icmp eq i32 %7, 0
  %. = select i1 %.not7, i32 -11, i32 -541478725
  br label %10

8:                                                ; preds = %3
  %9 = tail call i32 @ff_v4l2_buffer_buf_to_avframe(ptr noundef %1, ptr noundef nonnull %4) #8
  br label %10

10:                                               ; preds = %5, %8
  %.0 = phi i32 [ %9, %8 ], [ %., %5 ]
  ret i32 %.0
}